target datalayout = "e-m:e-p270:32:32-p271:32:32-p272:64:64-i64:64-i128:128-f80:128-n8:16:32:64-S128"
target triple = "x86_64-pc-linux-gnu"

%struct._wmem_map_t = type { i32, i64, ptr, ptr, ptr, i32, i32, ptr, ptr }
%struct._wmem_map_item_t = type { ptr, ptr, ptr }

@x = internal global i32 0, align 4

; Function Attrs: inlinehint null_pointer_is_valid sspstrong uwtable
define internal void @wmem_map_grow(ptr noundef %0) #5 {
  %2 = alloca ptr, align 8
  %3 = alloca ptr, align 8
  %4 = alloca ptr, align 8
  %5 = alloca ptr, align 8
  %6 = alloca i64, align 8
  %7 = alloca i64, align 8
  %8 = alloca i32, align 4
  store ptr %0, ptr %2, align 8
  call void @llvm.lifetime.start.p0(i64 8, ptr %3) #8
  call void @llvm.lifetime.start.p0(i64 8, ptr %4) #8
  call void @llvm.lifetime.start.p0(i64 8, ptr %5) #8
  call void @llvm.lifetime.start.p0(i64 8, ptr %6) #8
  call void @llvm.lifetime.start.p0(i64 8, ptr %7) #8
  call void @llvm.lifetime.start.p0(i64 4, ptr %8) #8
  %9 = load ptr, ptr %2, align 8
  %10 = getelementptr inbounds nuw %struct._wmem_map_t, ptr %9, i32 0, i32 2
  %11 = load ptr, ptr %10, align 8
  store ptr %11, ptr %3, align 8
  %12 = load ptr, ptr %2, align 8
  %13 = getelementptr inbounds nuw %struct._wmem_map_t, ptr %12, i32 0, i32 1
  %14 = load i64, ptr %13, align 8
  %15 = shl i64 1, %14
  store i64 %15, ptr %6, align 8
  %16 = load ptr, ptr %2, align 8
  %17 = getelementptr inbounds nuw %struct._wmem_map_t, ptr %16, i32 0, i32 1
  %18 = load i64, ptr %17, align 8
  %19 = add i64 %18, 1
  store i64 %19, ptr %17, align 8
  %20 = load ptr, ptr %2, align 8
  %21 = getelementptr inbounds nuw %struct._wmem_map_t, ptr %20, i32 0, i32 8
  %22 = load ptr, ptr %21, align 8
  %23 = load ptr, ptr %2, align 8
  %24 = getelementptr inbounds nuw %struct._wmem_map_t, ptr %23, i32 0, i32 1
  %25 = load i64, ptr %24, align 8
  %26 = shl i64 1, %25
  %27 = icmp ule i64 %26, 0
  br i1 %27, label %35, label %28

28:                                               ; preds = %1
  %29 = load ptr, ptr %2, align 8
  %30 = getelementptr inbounds nuw %struct._wmem_map_t, ptr %29, i32 0, i32 1
  %31 = load i64, ptr %30, align 8
  %32 = shl i64 1, %31
  %33 = udiv i64 9223372036854775807, %32
  %34 = icmp ugt i64 8, %33
  br i1 %34, label %35, label %36

35:                                               ; preds = %28, %1
  br label %42

36:                                               ; preds = %28
  %37 = load ptr, ptr %2, align 8
  %38 = getelementptr inbounds nuw %struct._wmem_map_t, ptr %37, i32 0, i32 1
  %39 = load i64, ptr %38, align 8
  %40 = shl i64 1, %39
  %41 = mul i64 8, %40
  br label %42

42:                                               ; preds = %36, %35
  %43 = phi i64 [ 0, %35 ], [ %41, %36 ]
  %44 = call noalias ptr @wmem_alloc0(ptr noundef %22, i64 noundef %43) #9
  %45 = load ptr, ptr %2, align 8
  %46 = getelementptr inbounds nuw %struct._wmem_map_t, ptr %45, i32 0, i32 2
  store ptr %44, ptr %46, align 8
  store i64 0, ptr %7, align 8
  br label %47

47:                                               ; preds = %96, %42
  %48 = load i64, ptr %7, align 8
  %49 = load i64, ptr %6, align 8
  %50 = icmp ult i64 %48, %49
  br i1 %50, label %51, label %99

51:                                               ; preds = %47
  %52 = load ptr, ptr %3, align 8
  %53 = load i64, ptr %7, align 8
  %54 = getelementptr ptr, ptr %52, i64 %53
  %55 = load ptr, ptr %54, align 8
  store ptr %55, ptr %4, align 8
  br label %56

56:                                               ; preds = %59, %51
  %57 = load ptr, ptr %4, align 8
  %58 = icmp ne ptr %57, null
  br i1 %58, label %59, label %95

59:                                               ; preds = %56
  %60 = load ptr, ptr %4, align 8
  %61 = getelementptr inbounds nuw %struct._wmem_map_item_t, ptr %60, i32 0, i32 2
  %62 = load ptr, ptr %61, align 8
  store ptr %62, ptr %5, align 8
  %63 = load ptr, ptr %2, align 8
  %64 = getelementptr inbounds nuw %struct._wmem_map_t, ptr %63, i32 0, i32 3
  %65 = load ptr, ptr %64, align 8
  %66 = load ptr, ptr %4, align 8
  %67 = getelementptr inbounds nuw %struct._wmem_map_item_t, ptr %66, i32 0, i32 0
  %68 = load ptr, ptr %67, align 8
  %69 = call i32 %65(ptr noundef %68)
  %70 = load i32, ptr @x, align 4
  %71 = mul i32 %69, %70
  %72 = load ptr, ptr %2, align 8
  %73 = getelementptr inbounds nuw %struct._wmem_map_t, ptr %72, i32 0, i32 1
  %74 = load i64, ptr %73, align 8
  %75 = sub i64 32, %74
  %76 = trunc i64 %75 to i32
  %77 = lshr i32 %71, %76
  store i32 %77, ptr %8, align 4
  %78 = load ptr, ptr %2, align 8
  %79 = getelementptr inbounds nuw %struct._wmem_map_t, ptr %78, i32 0, i32 2
  %80 = load ptr, ptr %79, align 8
  %81 = load i32, ptr %8, align 4
  %82 = zext i32 %81 to i64
  %83 = getelementptr ptr, ptr %80, i64 %82
  %84 = load ptr, ptr %83, align 8
  %85 = load ptr, ptr %4, align 8
  %86 = getelementptr inbounds nuw %struct._wmem_map_item_t, ptr %85, i32 0, i32 2
  store ptr %84, ptr %86, align 8
  %87 = load ptr, ptr %4, align 8
  %88 = load ptr, ptr %2, align 8
  %89 = getelementptr inbounds nuw %struct._wmem_map_t, ptr %88, i32 0, i32 2
  %90 = load ptr, ptr %89, align 8
  %91 = load i32, ptr %8, align 4
  %92 = zext i32 %91 to i64
  %93 = getelementptr ptr, ptr %90, i64 %92
  store ptr %87, ptr %93, align 8
  %94 = load ptr, ptr %5, align 8
  store ptr %94, ptr %4, align 8
  br label %56, !llvm.loop !8

95:                                               ; preds = %56
  br label %96

96:                                               ; preds = %95
  %97 = load i64, ptr %7, align 8
  %98 = add i64 %97, 1
  store i64 %98, ptr %7, align 8
  br label %47, !llvm.loop !9

99:                                               ; preds = %47
  %100 = load ptr, ptr %2, align 8
  %101 = getelementptr inbounds nuw %struct._wmem_map_t, ptr %100, i32 0, i32 8
  %102 = load ptr, ptr %101, align 8
  %103 = load ptr, ptr %3, align 8
  call void @wmem_free(ptr noundef %102, ptr noundef %103)
  call void @llvm.lifetime.end.p0(i64 4, ptr %8) #8
  call void @llvm.lifetime.end.p0(i64 8, ptr %7) #8
  call void @llvm.lifetime.end.p0(i64 8, ptr %6) #8
  call void @llvm.lifetime.end.p0(i64 8, ptr %5) #8
  call void @llvm.lifetime.end.p0(i64 8, ptr %4) #8
  call void @llvm.lifetime.end.p0(i64 8, ptr %3) #8
  ret void
}

; Function Attrs: null_pointer_is_valid sspstrong uwtable
define internal void @wmem_map_init_table(ptr noundef %0) #0 {
  %2 = alloca ptr, align 8
  store ptr %0, ptr %2, align 8
  %3 = load ptr, ptr %2, align 8
  %4 = getelementptr inbounds nuw %struct._wmem_map_t, ptr %3, i32 0, i32 0
  store i32 0, ptr %4, align 8
  %5 = load ptr, ptr %2, align 8
  %6 = getelementptr inbounds nuw %struct._wmem_map_t, ptr %5, i32 0, i32 1
  store i64 5, ptr %6, align 8
  %7 = load ptr, ptr %2, align 8
  %8 = getelementptr inbounds nuw %struct._wmem_map_t, ptr %7, i32 0, i32 8
  %9 = load ptr, ptr %8, align 8
  %10 = load ptr, ptr %2, align 8
  %11 = getelementptr inbounds nuw %struct._wmem_map_t, ptr %10, i32 0, i32 1
  %12 = load i64, ptr %11, align 8
  %13 = shl i64 1, %12
  %14 = icmp ule i64 %13, 0
  br i1 %14, label %22, label %15

15:                                               ; preds = %1
  %16 = load ptr, ptr %2, align 8
  %17 = getelementptr inbounds nuw %struct._wmem_map_t, ptr %16, i32 0, i32 1
  %18 = load i64, ptr %17, align 8
  %19 = shl i64 1, %18
  %20 = udiv i64 9223372036854775807, %19
  %21 = icmp ugt i64 8, %20
  br i1 %21, label %22, label %23

22:                                               ; preds = %15, %1
  br label %29

23:                                               ; preds = %15
  %24 = load ptr, ptr %2, align 8
  %25 = getelementptr inbounds nuw %struct._wmem_map_t, ptr %24, i32 0, i32 1
  %26 = load i64, ptr %25, align 8
  %27 = shl i64 1, %26
  %28 = mul i64 8, %27
  br label %29

29:                                               ; preds = %23, %22
  %30 = phi i64 [ 0, %22 ], [ %28, %23 ]
  %31 = call noalias ptr @wmem_alloc0(ptr noundef %9, i64 noundef %30) #9
  %32 = load ptr, ptr %2, align 8
  %33 = getelementptr inbounds nuw %struct._wmem_map_t, ptr %32, i32 0, i32 2
  store ptr %31, ptr %33, align 8
  ret void
}

; Function Attrs: null_pointer_is_valid sspstrong uwtable
define ptr @wmem_map_insert(ptr noundef %0, ptr noundef %1, ptr noundef %2) #0 {
  %4 = alloca ptr, align 8
  %5 = alloca ptr, align 8
  %6 = alloca ptr, align 8
  %7 = alloca ptr, align 8
  %8 = alloca ptr, align 8
  %9 = alloca ptr, align 8
  %10 = alloca i32, align 4
  store ptr %0, ptr %5, align 8
  store ptr %1, ptr %6, align 8
  store ptr %2, ptr %7, align 8
  call void @llvm.lifetime.start.p0(i64 8, ptr %8) #8
  call void @llvm.lifetime.start.p0(i64 8, ptr %9) #8
  %11 = load ptr, ptr %5, align 8
  %12 = getelementptr inbounds nuw %struct._wmem_map_t, ptr %11, i32 0, i32 2
  %13 = load ptr, ptr %12, align 8
  %14 = icmp eq ptr %13, null
  br i1 %14, label %15, label %17

15:                                               ; preds = %3
  %16 = load ptr, ptr %5, align 8
  call void @wmem_map_init_table(ptr noundef %16)
  br label %17

17:                                               ; preds = %15, %3
  %18 = load ptr, ptr %5, align 8
  %19 = getelementptr inbounds nuw %struct._wmem_map_t, ptr %18, i32 0, i32 2
  %20 = load ptr, ptr %19, align 8
  %21 = load ptr, ptr %5, align 8
  %22 = getelementptr inbounds nuw %struct._wmem_map_t, ptr %21, i32 0, i32 3
  %23 = load ptr, ptr %22, align 8
  %24 = load ptr, ptr %6, align 8
  %25 = call i32 %23(ptr noundef %24)
  %26 = load i32, ptr @x, align 4
  %27 = mul i32 %25, %26
  %28 = load ptr, ptr %5, align 8
  %29 = getelementptr inbounds nuw %struct._wmem_map_t, ptr %28, i32 0, i32 1
  %30 = load i64, ptr %29, align 8
  %31 = sub i64 32, %30
  %32 = trunc i64 %31 to i32
  %33 = lshr i32 %27, %32
  %34 = zext i32 %33 to i64
  %35 = getelementptr ptr, ptr %20, i64 %34
  store ptr %35, ptr %8, align 8
  br label %36

36:                                               ; preds = %61, %17
  %37 = load ptr, ptr %8, align 8
  %38 = load ptr, ptr %37, align 8
  %39 = icmp ne ptr %38, null
  br i1 %39, label %40, label %65

40:                                               ; preds = %36
  %41 = load ptr, ptr %5, align 8
  %42 = getelementptr inbounds nuw %struct._wmem_map_t, ptr %41, i32 0, i32 4
  %43 = load ptr, ptr %42, align 8
  %44 = load ptr, ptr %6, align 8
  %45 = load ptr, ptr %8, align 8
  %46 = load ptr, ptr %45, align 8
  %47 = getelementptr inbounds nuw %struct._wmem_map_item_t, ptr %46, i32 0, i32 0
  %48 = load ptr, ptr %47, align 8
  %49 = call i32 %43(ptr noundef %44, ptr noundef %48)
  %50 = icmp ne i32 %49, 0
  br i1 %50, label %51, label %61

51:                                               ; preds = %40
  %52 = load ptr, ptr %8, align 8
  %53 = load ptr, ptr %52, align 8
  %54 = getelementptr inbounds nuw %struct._wmem_map_item_t, ptr %53, i32 0, i32 1
  %55 = load ptr, ptr %54, align 8
  store ptr %55, ptr %9, align 8
  %56 = load ptr, ptr %7, align 8
  %57 = load ptr, ptr %8, align 8
  %58 = load ptr, ptr %57, align 8
  %59 = getelementptr inbounds nuw %struct._wmem_map_item_t, ptr %58, i32 0, i32 1
  store ptr %56, ptr %59, align 8
  %60 = load ptr, ptr %9, align 8
  store ptr %60, ptr %4, align 8
  store i32 1, ptr %10, align 4
  br label %98

61:                                               ; preds = %40
  %62 = load ptr, ptr %8, align 8
  %63 = load ptr, ptr %62, align 8
  %64 = getelementptr inbounds nuw %struct._wmem_map_item_t, ptr %63, i32 0, i32 2
  store ptr %64, ptr %8, align 8
  br label %36, !llvm.loop !6

65:                                               ; preds = %36
  %66 = load ptr, ptr %5, align 8
  %67 = getelementptr inbounds nuw %struct._wmem_map_t, ptr %66, i32 0, i32 8
  %68 = load ptr, ptr %67, align 8
  %69 = call noalias ptr @wmem_alloc(ptr noundef %68, i64 noundef 24) #9
  %70 = load ptr, ptr %8, align 8
  store ptr %69, ptr %70, align 8
  %71 = load ptr, ptr %6, align 8
  %72 = load ptr, ptr %8, align 8
  %73 = load ptr, ptr %72, align 8
  %74 = getelementptr inbounds nuw %struct._wmem_map_item_t, ptr %73, i32 0, i32 0
  store ptr %71, ptr %74, align 8
  %75 = load ptr, ptr %7, align 8
  %76 = load ptr, ptr %8, align 8
  %77 = load ptr, ptr %76, align 8
  %78 = getelementptr inbounds nuw %struct._wmem_map_item_t, ptr %77, i32 0, i32 1
  store ptr %75, ptr %78, align 8
  %79 = load ptr, ptr %8, align 8
  %80 = load ptr, ptr %79, align 8
  %81 = getelementptr inbounds nuw %struct._wmem_map_item_t, ptr %80, i32 0, i32 2
  store ptr null, ptr %81, align 8
  %82 = load ptr, ptr %5, align 8
  %83 = getelementptr inbounds nuw %struct._wmem_map_t, ptr %82, i32 0, i32 0
  %84 = load i32, ptr %83, align 8
  %85 = add i32 %84, 1
  store i32 %85, ptr %83, align 8
  %86 = load ptr, ptr %5, align 8
  %87 = getelementptr inbounds nuw %struct._wmem_map_t, ptr %86, i32 0, i32 0
  %88 = load i32, ptr %87, align 8
  %89 = zext i32 %88 to i64
  %90 = load ptr, ptr %5, align 8
  %91 = getelementptr inbounds nuw %struct._wmem_map_t, ptr %90, i32 0, i32 1
  %92 = load i64, ptr %91, align 8
  %93 = shl i64 1, %92
  %94 = icmp uge i64 %89, %93
  br i1 %94, label %95, label %97

95:                                               ; preds = %65
  %96 = load ptr, ptr %5, align 8
  call void @wmem_map_grow(ptr noundef %96)
  br label %97

97:                                               ; preds = %95, %65
  store ptr null, ptr %4, align 8
  store i32 1, ptr %10, align 4
  br label %98

98:                                               ; preds = %97, %51
  call void @llvm.lifetime.end.p0(i64 8, ptr %9) #8
  call void @llvm.lifetime.end.p0(i64 8, ptr %8) #8
  %99 = load ptr, ptr %4, align 8
  ret ptr %99
}