; Function Attrs: null_pointer_is_valid sspstrong uwtable
define ptr @wmem_map_insert(ptr noundef captures(none) %0, ptr noundef %1, ptr noundef %2) local_unnamed_addr #0 {
  %4 = getelementptr inbounds nuw i8, ptr %0, i64 16
  %5 = load ptr, ptr %4, align 8
  %6 = icmp eq ptr %5, null
  br i1 %6, label %7, label %12

7:                                                ; preds = %3
  store i32 0, ptr %0, align 8
  %8 = getelementptr inbounds nuw i8, ptr %0, i64 8
  store i64 5, ptr %8, align 8
  %9 = getelementptr inbounds nuw i8, ptr %0, i64 56
  %10 = load ptr, ptr %9, align 8
  %11 = tail call noalias dereferenceable_or_null(256) ptr @wmem_alloc0(ptr noundef %10, i64 noundef 256) #7
  store ptr %11, ptr %4, align 8
  br label %12

12:                                               ; preds = %7, %3
  %13 = phi ptr [ %11, %7 ], [ %5, %3 ]
  %14 = getelementptr inbounds nuw i8, ptr %0, i64 24
  %15 = load ptr, ptr %14, align 8
  %16 = tail call i32 %15(ptr noundef %1)
  %17 = load i32, ptr @x, align 4
  %18 = mul i32 %17, %16
  %19 = getelementptr inbounds nuw i8, ptr %0, i64 8
  %20 = load i64, ptr %19, align 8
  %21 = trunc i64 %20 to i32
  %22 = sub i32 32, %21
  %23 = lshr i32 %18, %22
  %24 = zext i32 %23 to i64
  %25 = getelementptr ptr, ptr %13, i64 %24
  %26 = load ptr, ptr %25, align 8
  %.not32 = icmp eq ptr %26, null
  br i1 %.not32, label %._crit_edge, label %.lr.ph

.lr.ph:                                           ; preds = %12
  %27 = getelementptr inbounds nuw i8, ptr %0, i64 32
  br label %28

28:                                               ; preds = %.lr.ph, %37
  %29 = phi ptr [ %26, %.lr.ph ], [ %39, %37 ]
  %.02733 = phi ptr [ %25, %.lr.ph ], [ %38, %37 ]
  %30 = load ptr, ptr %27, align 8
  %31 = load ptr, ptr %29, align 8
  %32 = tail call i32 %30(ptr noundef %1, ptr noundef %31)
  %.not30 = icmp eq i32 %32, 0
  %33 = load ptr, ptr %.02733, align 8
  br i1 %.not30, label %37, label %34

34:                                               ; preds = %28
  %35 = getelementptr inbounds nuw i8, ptr %33, i64 8
  %36 = load ptr, ptr %35, align 8
  store ptr %2, ptr %35, align 8
  br label %81

37:                                               ; preds = %28
  %38 = getelementptr inbounds nuw i8, ptr %33, i64 16
  %39 = load ptr, ptr %38, align 8
  %.not = icmp eq ptr %39, null
  br i1 %.not, label %._crit_edge, label %28, !llvm.loop !7

._crit_edge:                                      ; preds = %37, %12
  %.027.lcssa = phi ptr [ %25, %12 ], [ %38, %37 ]
  %40 = getelementptr inbounds nuw i8, ptr %0, i64 56
  %41 = load ptr, ptr %40, align 8
  %42 = tail call noalias dereferenceable_or_null(24) ptr @wmem_alloc(ptr noundef %41, i64 noundef 24) #7
  store ptr %42, ptr %.027.lcssa, align 8
  store ptr %1, ptr %42, align 8
  %43 = getelementptr inbounds nuw i8, ptr %42, i64 8
  store ptr %2, ptr %43, align 8
  %44 = getelementptr inbounds nuw i8, ptr %42, i64 16
  store ptr null, ptr %44, align 8
  %45 = load i32, ptr %0, align 8
  %46 = add i32 %45, 1
  store i32 %46, ptr %0, align 8
  %47 = zext i32 %46 to i64
  %48 = load i64, ptr %19, align 8
  %.highbits = lshr i64 %47, %48
  %.not29 = icmp eq i64 %.highbits, 0
  br i1 %.not29, label %81, label %49

49:                                               ; preds = %._crit_edge
  %50 = load ptr, ptr %4, align 8
  %51 = add i64 %48, 1
  store i64 %51, ptr %19, align 8
  %52 = load ptr, ptr %40, align 8
  %53 = lshr i64 9223372036854775807, %51
  %54 = icmp samesign ult i64 %53, 8
  %55 = shl i64 8, %51
  %56 = select i1 %54, i64 0, i64 %55
  %57 = tail call noalias ptr @wmem_alloc0(ptr noundef %52, i64 noundef %56) #7
  store ptr %57, ptr %4, align 8
  br label %58

58:                                               ; preds = %._crit_edge.i, %49
  %.02629.i = phi i64 [ 0, %49 ], [ %78, %._crit_edge.i ]
  %59 = getelementptr ptr, ptr %50, i64 %.02629.i
  %60 = load ptr, ptr %59, align 8
  %.not27.i = icmp eq ptr %60, null
  br i1 %.not27.i, label %._crit_edge.i, label %.lr.ph.i

.lr.ph.i:                                         ; preds = %58, %.lr.ph.i
  %.028.i = phi ptr [ %62, %.lr.ph.i ], [ %60, %58 ]
  %61 = getelementptr inbounds nuw i8, ptr %.028.i, i64 16
  %62 = load ptr, ptr %61, align 8
  %63 = load ptr, ptr %14, align 8
  %64 = load ptr, ptr %.028.i, align 8
  %65 = tail call i32 %63(ptr noundef %64)
  %66 = load i32, ptr @x, align 4
  %67 = mul i32 %66, %65
  %68 = load i64, ptr %19, align 8
  %69 = trunc i64 %68 to i32
  %70 = sub i32 32, %69
  %71 = lshr i32 %67, %70
  %72 = load ptr, ptr %4, align 8
  %73 = zext i32 %71 to i64
  %74 = getelementptr ptr, ptr %72, i64 %73
  %75 = load ptr, ptr %74, align 8
  store ptr %75, ptr %61, align 8
  %76 = load ptr, ptr %4, align 8
  %77 = getelementptr ptr, ptr %76, i64 %73
  store ptr %.028.i, ptr %77, align 8
  %.not.i = icmp eq ptr %62, null
  br i1 %.not.i, label %._crit_edge.i, label %.lr.ph.i, !llvm.loop !9

._crit_edge.i:                                    ; preds = %.lr.ph.i, %58
  %78 = add i64 %.02629.i, 1
  %.026.highbits.i = lshr i64 %78, %48
  %79 = icmp eq i64 %.026.highbits.i, 0
  br i1 %79, label %58, label %wmem_map_grow.exit, !llvm.loop !10

wmem_map_grow.exit:                               ; preds = %._crit_edge.i
  %80 = load ptr, ptr %40, align 8
  tail call void @wmem_free(ptr noundef %80, ptr noundef %50)
  br label %81

81:                                               ; preds = %._crit_edge, %wmem_map_grow.exit, %34
  %.0 = phi ptr [ %36, %34 ], [ null, %wmem_map_grow.exit ], [ null, %._crit_edge ]
  ret ptr %.0
}